; Function Attrs: null_pointer_is_valid sspstrong uwtable
define internal fastcc i32 @call_dissect_function(ptr noundef %0, ptr noundef %1, ptr noundef %2, i32 noundef %3, ptr noundef %4, ptr noundef %5, ptr noundef %6) unnamed_addr #0 {
  %.not = icmp eq ptr %4, null
  br i1 %.not, label %15, label %8

8:                                                ; preds = %7
  %9 = load ptr, ptr %1, align 8
  %.not17 = icmp eq ptr %5, null
  br i1 %.not17, label %11, label %10

10:                                               ; preds = %8
  store ptr %5, ptr %1, align 8
  br label %11

11:                                               ; preds = %10, %8
  %12 = tail call ptr @tvb_new_subset_remaining(ptr noundef %0, i32 noundef %3)
  %13 = tail call i32 @call_dissector_with_data(ptr noundef nonnull %4, ptr noundef %12, ptr noundef %1, ptr noundef %2, ptr noundef %6)
  %14 = add i32 %13, %3
  store ptr %9, ptr %1, align 8
  br label %15

15:                                               ; preds = %11, %7
  %.0 = phi i32 [ %14, %11 ], [ %3, %7 ]
  ret i32 %.0
}